target datalayout = "e-m:e-p270:32:32-p271:32:32-p272:64:64-i64:64-i128:128-f80:128-n8:16:32:64-S128"
target triple = "x86_64-pc-linux-gnu"

%struct.PJ_LP = type { double, double }
%struct.PJ_XY = type { double, double }

; Function Attrs: mustprogress nounwind uwtable
define internal { double, double } @_ZL17calcofi_s_inverse5PJ_XYP8PJconsts(double %0, double %1, ptr noundef %2) #1 {
  %4 = alloca %struct.PJ_LP, align 8
  %5 = alloca %struct.PJ_XY, align 8
  %6 = alloca ptr, align 8
  %7 = alloca double, align 8
  %8 = alloca double, align 8
  %9 = alloca double, align 8
  %10 = alloca double, align 8
  %11 = alloca double, align 8
  %12 = alloca double, align 8
  %13 = getelementptr inbounds nuw { double, double }, ptr %5, i32 0, i32 0
  store double %0, ptr %13, align 8
  %14 = getelementptr inbounds nuw { double, double }, ptr %5, i32 0, i32 1
  store double %1, ptr %14, align 8
  store ptr %2, ptr %6, align 8, !tbaa !3
  call void @llvm.memset.p0.i64(ptr align 8 %4, i8 0, i64 16, i1 false)
  call void @llvm.lifetime.start.p0(i64 8, ptr %7) #7
  call void @llvm.lifetime.start.p0(i64 8, ptr %8) #7
  call void @llvm.lifetime.start.p0(i64 8, ptr %9) #7
  call void @llvm.lifetime.start.p0(i64 8, ptr %10) #7
  call void @llvm.lifetime.start.p0(i64 8, ptr %11) #7
  call void @llvm.lifetime.start.p0(i64 8, ptr %12) #7
  %15 = getelementptr inbounds nuw %struct.PJ_XY, ptr %5, i32 0, i32 0
  %16 = load double, ptr %15, align 8, !tbaa !51
  %17 = fsub double %16, 8.000000e+01
  %18 = fmul double 0x3F6C987103B761F5, %17
  %19 = call double @cos(double noundef 0x3FE0C152382D7365) #7, !tbaa !53
  %20 = fneg double %18
  %21 = call double @llvm.fmuladd.f64(double %20, double %19, double 0x3FE312AD613A9096)
  store double %21, ptr %7, align 8, !tbaa !54
  %22 = load double, ptr %7, align 8, !tbaa !54
  %23 = getelementptr inbounds nuw %struct.PJ_XY, ptr %5, i32 0, i32 1
  %24 = load double, ptr %23, align 8, !tbaa !55
  %25 = fsub double %24, 6.000000e+01
  %26 = fmul double 0x3F53104B57CF96A3, %25
  %27 = call double @sin(double noundef 0x3FE0C152382D7365) #7, !tbaa !53
  %28 = fneg double %26
  %29 = call double @llvm.fmuladd.f64(double %28, double %27, double %22)
  %30 = getelementptr inbounds nuw %struct.PJ_LP, ptr %4, i32 0, i32 1
  store double %29, ptr %30, align 8, !tbaa !56
  %31 = call double @tan(double noundef 0x3FF155A90270BAB2) #7, !tbaa !53
  %32 = call double @log(double noundef %31) #7, !tbaa !53
  store double %32, ptr %8, align 8, !tbaa !54
  %33 = load double, ptr %7, align 8, !tbaa !54
  %34 = call double @llvm.fmuladd.f64(double 5.000000e-01, double %33, double 0x3FE921FB54442D18)
  %35 = call double @tan(double noundef %34) #7, !tbaa !53
  %36 = call double @log(double noundef %35) #7, !tbaa !53
  store double %36, ptr %9, align 8, !tbaa !54
  %37 = getelementptr inbounds nuw %struct.PJ_LP, ptr %4, i32 0, i32 1
  %38 = load double, ptr %37, align 8, !tbaa !56
  %39 = call double @llvm.fmuladd.f64(double 5.000000e-01, double %38, double 0x3FE921FB54442D18)
  %40 = call double @tan(double noundef %39) #7, !tbaa !53
  %41 = call double @log(double noundef %40) #7, !tbaa !53
  store double %41, ptr %10, align 8, !tbaa !54
  %42 = load double, ptr %10, align 8, !tbaa !54
  %43 = load double, ptr %8, align 8, !tbaa !54
  %44 = fsub double %42, %43
  %45 = call double @tan(double noundef 0x3FE0C152382D7365) #7, !tbaa !53
  %46 = fmul double %44, %45
  store double %46, ptr %11, align 8, !tbaa !54
  %47 = load double, ptr %9, align 8, !tbaa !54
  %48 = load double, ptr %10, align 8, !tbaa !54
  %49 = fsub double %47, %48
  %50 = call double @cos(double noundef 0x3FE0C152382D7365) #7, !tbaa !53
  %51 = call double @sin(double noundef 0x3FE0C152382D7365) #7, !tbaa !53
  %52 = fmul double %50, %51
  %53 = fdiv double %49, %52
  store double %53, ptr %12, align 8, !tbaa !54
  %54 = load double, ptr %11, align 8, !tbaa !54
  %55 = load double, ptr %12, align 8, !tbaa !54
  %56 = fadd double %54, %55
  %57 = fsub double 0xC000EA6D5AA2CB02, %56
  %58 = getelementptr inbounds nuw %struct.PJ_LP, ptr %4, i32 0, i32 0
  store double %57, ptr %58, align 8, !tbaa !59
  call void @llvm.lifetime.end.p0(i64 8, ptr %12) #7
  call void @llvm.lifetime.end.p0(i64 8, ptr %11) #7
  call void @llvm.lifetime.end.p0(i64 8, ptr %10) #7
  call void @llvm.lifetime.end.p0(i64 8, ptr %9) #7
  call void @llvm.lifetime.end.p0(i64 8, ptr %8) #7
  call void @llvm.lifetime.end.p0(i64 8, ptr %7) #7
  %59 = load { double, double }, ptr %4, align 8
  ret { double, double } %59
}