; Function Attrs: mustprogress nofree nounwind willreturn memory(write) uwtable
define internal { double, double } @_ZL17calcofi_s_inverse5PJ_XYP8PJconsts(double %0, double %1, ptr readnone captures(none) %2) #3 {
  %4 = fadd double %0, -8.000000e+01
  %5 = fmul double %4, 0xBF6C987103B761F5
  %6 = tail call double @llvm.fmuladd.f64(double %5, double 0x3FEBB67AE8584CAB, double 0x3FE312AD613A9096)
  %7 = fadd double %1, -6.000000e+01
  %8 = fmul double %7, 0xBF53104B57CF96A3
  %9 = tail call double @llvm.fmuladd.f64(double %8, double 0x3FDFFFFFFFFFFFFF, double %6)
  %10 = tail call double @llvm.fmuladd.f64(double %6, double 5.000000e-01, double 0x3FE921FB54442D18)
  %11 = tail call double @tan(double noundef %10) #7, !tbaa !49
  %12 = tail call double @log(double noundef %11) #7, !tbaa !49
  %13 = tail call double @llvm.fmuladd.f64(double %9, double 5.000000e-01, double 0x3FE921FB54442D18)
  %14 = tail call double @tan(double noundef %13) #7, !tbaa !49
  %15 = tail call double @log(double noundef %14) #7, !tbaa !49
  %16 = fadd double %15, 0xBFE4506F7CB6F53A
  %17 = fmul double %16, 0x3FE279A74590331C
  %18 = fsub double %12, %15
  %19 = fdiv double %18, 0x3FDBB67AE8584CAA
  %20 = fadd double %17, %19
  %21 = fsub double 0xC000EA6D5AA2CB02, %20
  %.fca.0.insert = insertvalue { double, double } poison, double %21, 0
  %.fca.1.insert = insertvalue { double, double } %.fca.0.insert, double %9, 1
  ret { double, double } %.fca.1.insert
}